target datalayout = "e-m:e-p270:32:32-p271:32:32-p272:64:64-i64:64-i128:128-f80:128-n8:16:32:64-S128"
target triple = "x86_64-pc-linux-gnu"

%struct._zval_struct = type { %union._zend_value, %union.anon, %union.anon.3 }
%union._zend_value = type { i64 }
%union.anon = type { i32 }
%union.anon.3 = type { i32 }
%struct._zend_refcounted_h = type { i32, %union.anon.4 }
%union.anon.4 = type { i32 }
%struct._zend_string = type { %struct._zend_refcounted_h, i64, i64, [1 x i8] }

@zend_empty_string = external global ptr, align 8

; Function Attrs: nounwind uwtable
define internal i32 @ct_eval_del_array_elem(ptr noundef %0, ptr noundef %1) #0 {
  %3 = alloca i1, align 1
  %4 = alloca ptr, align 8
  %5 = alloca i64, align 8
  %6 = alloca ptr, align 8
  %7 = alloca ptr, align 8
  %8 = alloca i32, align 4
  %9 = alloca ptr, align 8
  %10 = alloca ptr, align 8
  %11 = alloca i64, align 8
  %12 = alloca double, align 8
  %13 = alloca i64, align 8
  %14 = alloca i64, align 8
  %15 = alloca double, align 8
  %16 = alloca ptr, align 8
  %17 = alloca i32, align 4
  %18 = alloca ptr, align 8
  %19 = alloca ptr, align 8
  %20 = alloca i64, align 8
  store ptr %0, ptr %18, align 8
  store ptr %1, ptr %19, align 8
  %21 = load ptr, ptr %19, align 8
  store ptr %21, ptr %16, align 8
  %22 = load ptr, ptr %16, align 8
  %23 = getelementptr inbounds %struct._zval_struct, ptr %22, i32 0, i32 1
  %24 = load i8, ptr %23, align 8
  %25 = zext i8 %24 to i32
  switch i32 %25, label %149 [
    i32 1, label %26
    i32 2, label %32
    i32 3, label %37
    i32 4, label %42
    i32 5, label %50
    i32 6, label %90
  ]

26:                                               ; preds = %2
  %27 = load ptr, ptr %18, align 8
  %28 = getelementptr inbounds %struct._zval_struct, ptr %27, i32 0, i32 0
  %29 = load ptr, ptr %28, align 8
  %30 = load ptr, ptr @zend_empty_string, align 8
  %31 = call i32 @zend_hash_del(ptr noundef %29, ptr noundef %30)
  br label %150

32:                                               ; preds = %2
  %33 = load ptr, ptr %18, align 8
  %34 = getelementptr inbounds %struct._zval_struct, ptr %33, i32 0, i32 0
  %35 = load ptr, ptr %34, align 8
  %36 = call i32 @zend_hash_index_del(ptr noundef %35, i64 noundef 0)
  br label %150

37:                                               ; preds = %2
  %38 = load ptr, ptr %18, align 8
  %39 = getelementptr inbounds %struct._zval_struct, ptr %38, i32 0, i32 0
  %40 = load ptr, ptr %39, align 8
  %41 = call i32 @zend_hash_index_del(ptr noundef %40, i64 noundef 1)
  br label %150

42:                                               ; preds = %2
  %43 = load ptr, ptr %18, align 8
  %44 = getelementptr inbounds %struct._zval_struct, ptr %43, i32 0, i32 0
  %45 = load ptr, ptr %44, align 8
  %46 = load ptr, ptr %19, align 8
  %47 = getelementptr inbounds %struct._zval_struct, ptr %46, i32 0, i32 0
  %48 = load i64, ptr %47, align 8
  %49 = call i32 @zend_hash_index_del(ptr noundef %45, i64 noundef %48)
  br label %150

50:                                               ; preds = %2
  %51 = load ptr, ptr %19, align 8
  %52 = getelementptr inbounds %struct._zval_struct, ptr %51, i32 0, i32 0
  %53 = load double, ptr %52, align 8
  store double %53, ptr %15, align 8
  %54 = load double, ptr %15, align 8
  %55 = call i1 @llvm.is.fpclass.f64(double %54, i32 504)
  %56 = xor i1 %55, true
  br i1 %56, label %60, label %57

57:                                               ; preds = %50
  %58 = load double, ptr %15, align 8
  %59 = call i1 @llvm.is.fpclass.f64(double %58, i32 3)
  br i1 %59, label %60, label %61

60:                                               ; preds = %57, %50
  store i64 0, ptr %14, align 8
  br label %73

61:                                               ; preds = %57
  %62 = load double, ptr %15, align 8
  %63 = fcmp oge double %62, 0x43E0000000000000
  br i1 %63, label %67, label %64

64:                                               ; preds = %61
  %65 = load double, ptr %15, align 8
  %66 = fcmp olt double %65, 0xC3E0000000000000
  br i1 %66, label %67, label %70

67:                                               ; preds = %64, %61
  %68 = load double, ptr %15, align 8
  %69 = call i64 @zend_dval_to_lval_slow(double noundef %68) #10
  store i64 %69, ptr %14, align 8
  br label %73

70:                                               ; preds = %64
  %71 = load double, ptr %15, align 8
  %72 = fptosi double %71 to i64
  store i64 %72, ptr %14, align 8
  br label %73

73:                                               ; preds = %70, %67, %60
  %74 = load i64, ptr %14, align 8
  store i64 %74, ptr %20, align 8
  %75 = load ptr, ptr %19, align 8
  %76 = getelementptr inbounds %struct._zval_struct, ptr %75, i32 0, i32 0
  %77 = load double, ptr %76, align 8
  %78 = load i64, ptr %20, align 8
  store double %77, ptr %12, align 8
  store i64 %78, ptr %13, align 8
  %79 = load i64, ptr %13, align 8
  %80 = sitofp i64 %79 to double
  %81 = load double, ptr %12, align 8
  %82 = fcmp oeq double %80, %81
  br i1 %82, label %84, label %83

83:                                               ; preds = %73
  store i32 -1, ptr %17, align 4
  br label %151

84:                                               ; preds = %73
  %85 = load ptr, ptr %18, align 8
  %86 = getelementptr inbounds %struct._zval_struct, ptr %85, i32 0, i32 0
  %87 = load ptr, ptr %86, align 8
  %88 = load i64, ptr %20, align 8
  %89 = call i32 @zend_hash_index_del(ptr noundef %87, i64 noundef %88)
  br label %150

90:                                               ; preds = %2
  %91 = load ptr, ptr %18, align 8
  %92 = getelementptr inbounds %struct._zval_struct, ptr %91, i32 0, i32 0
  %93 = load ptr, ptr %92, align 8
  %94 = load ptr, ptr %19, align 8
  %95 = getelementptr inbounds %struct._zval_struct, ptr %94, i32 0, i32 0
  %96 = load ptr, ptr %95, align 8
  store ptr %93, ptr %9, align 8
  store ptr %96, ptr %10, align 8
  %97 = load ptr, ptr %10, align 8
  %98 = getelementptr inbounds %struct._zend_string, ptr %97, i32 0, i32 3
  %99 = load ptr, ptr %10, align 8
  %100 = getelementptr inbounds %struct._zend_string, ptr %99, i32 0, i32 2
  %101 = load i64, ptr %100, align 8
  store ptr %98, ptr %4, align 8
  store i64 %101, ptr %5, align 8
  store ptr %11, ptr %6, align 8
  %102 = load ptr, ptr %4, align 8
  store ptr %102, ptr %7, align 8
  %103 = load ptr, ptr %7, align 8
  %104 = load i8, ptr %103, align 1
  %105 = sext i8 %104 to i32
  %106 = icmp sgt i32 %105, 57
  br i1 %106, label %107, label %108

107:                                              ; preds = %90
  store i1 false, ptr %3, align 1
  br label %138

108:                                              ; preds = %90
  %109 = load ptr, ptr %7, align 8
  %110 = load i8, ptr %109, align 1
  %111 = sext i8 %110 to i32
  %112 = icmp slt i32 %111, 48
  br i1 %112, label %113, label %133

113:                                              ; preds = %108
  %114 = load ptr, ptr %7, align 8
  %115 = load i8, ptr %114, align 1
  %116 = sext i8 %115 to i32
  %117 = icmp ne i32 %116, 45
  br i1 %117, label %118, label %119

118:                                              ; preds = %113
  store i1 false, ptr %3, align 1
  br label %138

119:                                              ; preds = %113
  %120 = load ptr, ptr %7, align 8
  %121 = getelementptr inbounds i8, ptr %120, i32 1
  store ptr %121, ptr %7, align 8
  %122 = load ptr, ptr %7, align 8
  %123 = load i8, ptr %122, align 1
  %124 = sext i8 %123 to i32
  %125 = icmp sgt i32 %124, 57
  br i1 %125, label %131, label %126

126:                                              ; preds = %119
  %127 = load ptr, ptr %7, align 8
  %128 = load i8, ptr %127, align 1
  %129 = sext i8 %128 to i32
  %130 = icmp slt i32 %129, 48
  br i1 %130, label %131, label %132

131:                                              ; preds = %126, %119
  store i1 false, ptr %3, align 1
  br label %138

132:                                              ; preds = %126
  br label %133

133:                                              ; preds = %132, %108
  %134 = load ptr, ptr %4, align 8
  %135 = load i64, ptr %5, align 8
  %136 = load ptr, ptr %6, align 8
  %137 = call zeroext i1 @_zend_handle_numeric_str_ex(ptr noundef %134, i64 noundef %135, ptr noundef %136) #10
  store i1 %137, ptr %3, align 1
  br label %138

138:                                              ; preds = %133, %131, %118, %107
  %139 = load i1, ptr %3, align 1
  br i1 %139, label %140, label %144

140:                                              ; preds = %138
  %141 = load ptr, ptr %9, align 8
  %142 = load i64, ptr %11, align 8
  %143 = call i32 @zend_hash_index_del(ptr noundef %141, i64 noundef %142) #10
  store i32 %143, ptr %8, align 4
  br label %148

144:                                              ; preds = %138
  %145 = load ptr, ptr %9, align 8
  %146 = load ptr, ptr %10, align 8
  %147 = call i32 @zend_hash_del(ptr noundef %145, ptr noundef %146) #10
  store i32 %147, ptr %8, align 4
  br label %148

148:                                              ; preds = %144, %140
  br label %150

149:                                              ; preds = %2
  store i32 -1, ptr %17, align 4
  br label %151

150:                                              ; preds = %148, %84, %42, %37, %32, %26
  store i32 0, ptr %17, align 4
  br label %151

151:                                              ; preds = %150, %149, %83
  %152 = load i32, ptr %17, align 4
  ret i32 %152
}