; Function Attrs: nounwind uwtable
define internal fastcc noundef i32 @ct_eval_del_array_elem(ptr nocapture noundef readonly %0, ptr nocapture noundef readonly %1) unnamed_addr #0 {
  %3 = alloca i64, align 8
  %4 = getelementptr inbounds i8, ptr %1, i64 8
  %5 = load i8, ptr %4, align 8
  switch i8 %5, label %58 [
    i8 1, label %6
    i8 2, label %10
    i8 3, label %13
    i8 4, label %16
    i8 5, label %20
    i8 6, label %37
  ]

6:                                                ; preds = %2
  %7 = load ptr, ptr %0, align 8
  %8 = load ptr, ptr @zend_empty_string, align 8
  %9 = tail call i32 @zend_hash_del(ptr noundef %7, ptr noundef %8) #13
  br label %58

10:                                               ; preds = %2
  %11 = load ptr, ptr %0, align 8
  %12 = tail call i32 @zend_hash_index_del(ptr noundef %11, i64 noundef 0) #13
  br label %58

13:                                               ; preds = %2
  %14 = load ptr, ptr %0, align 8
  %15 = tail call i32 @zend_hash_index_del(ptr noundef %14, i64 noundef 1) #13
  br label %58

16:                                               ; preds = %2
  %17 = load ptr, ptr %0, align 8
  %18 = load i64, ptr %1, align 8
  %19 = tail call i32 @zend_hash_index_del(ptr noundef %17, i64 noundef %18) #13
  br label %58

20:                                               ; preds = %2
  %21 = load double, ptr %1, align 8
  %22 = tail call double @llvm.fabs.f64(double %21)
  %or.cond45 = fcmp ueq double %22, 0x7FF0000000000000
  br i1 %or.cond45, label %30, label %23

23:                                               ; preds = %20
  %24 = fcmp oge double %21, 0x43E0000000000000
  %25 = fcmp olt double %21, 0xC3E0000000000000
  %or.cond = or i1 %24, %25
  br i1 %or.cond, label %26, label %28

26:                                               ; preds = %23
  %27 = tail call i64 @zend_dval_to_lval_slow(double noundef %21) #13
  %.pre = load double, ptr %1, align 8
  br label %30

28:                                               ; preds = %23
  %29 = fptosi double %21 to i64
  br label %30

30:                                               ; preds = %20, %28, %26
  %31 = phi double [ %.pre, %26 ], [ %21, %28 ], [ %21, %20 ]
  %.041 = phi i64 [ %27, %26 ], [ %29, %28 ], [ 0, %20 ]
  %32 = sitofp i64 %.041 to double
  %33 = fcmp oeq double %31, %32
  br i1 %33, label %34, label %58

34:                                               ; preds = %30
  %35 = load ptr, ptr %0, align 8
  %36 = tail call i32 @zend_hash_index_del(ptr noundef %35, i64 noundef %.041) #13
  br label %58

37:                                               ; preds = %2
  %38 = load ptr, ptr %0, align 8
  %39 = load ptr, ptr %1, align 8
  %40 = getelementptr inbounds i8, ptr %39, i64 24
  %41 = getelementptr inbounds i8, ptr %39, i64 16
  %42 = load i64, ptr %41, align 8
  %43 = load i8, ptr %40, align 1
  %44 = icmp sgt i8 %43, 57
  br i1 %44, label %.critedge, label %45

45:                                               ; preds = %37
  %46 = icmp slt i8 %43, 48
  br i1 %46, label %47, label %52

47:                                               ; preds = %45
  %.not = icmp eq i8 %43, 45
  br i1 %.not, label %48, label %.critedge

48:                                               ; preds = %47
  %49 = getelementptr inbounds i8, ptr %39, i64 25
  %50 = load i8, ptr %49, align 1
  %51 = add i8 %50, -58
  %or.cond46 = icmp ult i8 %51, -10
  br i1 %or.cond46, label %.critedge, label %52

52:                                               ; preds = %48, %45
  %53 = call zeroext i1 @_zend_handle_numeric_str_ex(ptr noundef nonnull %40, i64 noundef %42, ptr noundef nonnull %3) #13
  br i1 %53, label %54, label %.critedge

54:                                               ; preds = %52
  %55 = load i64, ptr %3, align 8
  %56 = call i32 @zend_hash_index_del(ptr noundef %38, i64 noundef %55) #13
  br label %58

.critedge:                                        ; preds = %37, %47, %48, %52
  %57 = call i32 @zend_hash_del(ptr noundef %38, ptr noundef nonnull %39) #13
  br label %58

58:                                               ; preds = %6, %10, %13, %16, %34, %.critedge, %54, %2, %30
  %.040 = phi i32 [ -1, %30 ], [ -1, %2 ], [ 0, %54 ], [ 0, %.critedge ], [ 0, %34 ], [ 0, %16 ], [ 0, %13 ], [ 0, %10 ], [ 0, %6 ]
  ret i32 %.040
}